target datalayout = "e-m:e-p270:32:32-p271:32:32-p272:64:64-i64:64-i128:128-f80:128-n8:16:32:64-S128"
target triple = "x86_64-pc-linux-gnu"

@H5SL_init_g = global i8 0, align 1
@H5_libterm_g = external global i8, align 1
@.str = private unnamed_addr constant [98 x i8] c"generated/home/dtcxzyw/WorkSpace/Projects/compilers/llvm-opt-benchmark/bench/hdf5/hdf5/src/H5SL.c\00", align 1
@H5E_SLIST_g = external global i64, align 8
@.str.3 = private unnamed_addr constant [32 x i8] c"can't create new skip list node\00", align 1
@H5E_CANTINSERT_g = external global i64, align 8
@__func__.H5SL_add = private unnamed_addr constant [9 x i8] c"H5SL_add\00", align 1

; Function Attrs: nounwind uwtable
define ptr @H5SL_add(ptr noundef %0, ptr noundef %1, ptr noundef %2) #0 {
  %4 = alloca ptr, align 8
  %5 = alloca ptr, align 8
  %6 = alloca ptr, align 8
  %7 = alloca ptr, align 8
  %8 = alloca i8, align 1
  store ptr %0, ptr %4, align 8, !tbaa !21
  store ptr %1, ptr %5, align 8, !tbaa !20
  store ptr %2, ptr %6, align 8, !tbaa !20
  call void @llvm.lifetime.start.p0(i64 8, ptr %7) #8
  store ptr null, ptr %7, align 8, !tbaa !29
  call void @llvm.lifetime.start.p0(i64 1, ptr %8) #8
  store i8 0, ptr %8, align 1, !tbaa !3
  %9 = load i8, ptr @H5SL_init_g, align 1, !tbaa !3, !range !7, !noundef !8
  %10 = trunc i8 %9 to i1
  br i1 %10, label %15, label %11

11:                                               ; preds = %3
  %12 = load i8, ptr @H5_libterm_g, align 1, !tbaa !3, !range !7, !noundef !8
  %13 = trunc i8 %12 to i1
  %14 = xor i1 %13, true
  br label %15

15:                                               ; preds = %11, %3
  %16 = phi i1 [ true, %3 ], [ %14, %11 ]
  %17 = xor i1 %16, true
  %18 = xor i1 %17, true
  %19 = zext i1 %18 to i32
  %20 = sext i32 %19 to i64
  %21 = call i64 @llvm.expect.i64(i64 %20, i64 1)
  %22 = icmp ne i64 %21, 0
  br i1 %22, label %23, label %50

23:                                               ; preds = %15
  %24 = load ptr, ptr %4, align 8, !tbaa !21
  %25 = load ptr, ptr %5, align 8, !tbaa !20
  %26 = load ptr, ptr %6, align 8, !tbaa !20
  %27 = call ptr @H5SL__insert_common(ptr noundef %24, ptr noundef %25, ptr noundef %26)
  store ptr %27, ptr %7, align 8, !tbaa !29
  %28 = icmp eq ptr null, %27
  br i1 %28, label %29, label %48

29:                                               ; preds = %23
  br label %30

30:                                               ; preds = %29
  br label %31

31:                                               ; preds = %30
  br label %32

32:                                               ; preds = %31
  %33 = load i64, ptr @H5E_SLIST_g, align 8, !tbaa !12
  %34 = load i64, ptr @H5E_CANTINSERT_g, align 8, !tbaa !12
  %35 = call i32 (ptr, ptr, i32, i64, i64, ptr, ...) @H5E_printf_stack(ptr noundef @.str, ptr noundef @__func__.H5SL_add, i32 noundef 1096, i64 noundef %33, i64 noundef %34, ptr noundef @.str.3)
  br label %36

36:                                               ; preds = %32
  br label %37

37:                                               ; preds = %36
  store i8 1, ptr %8, align 1, !tbaa !3
  %38 = load i8, ptr %8, align 1, !tbaa !3, !range !7, !noundef !8
  %39 = trunc i8 %38 to i1
  %40 = zext i1 %39 to i8
  store i8 %40, ptr %8, align 1, !tbaa !3
  br label %41

41:                                               ; preds = %37
  br label %42

42:                                               ; preds = %41
  br label %43

43:                                               ; preds = %42
  store ptr null, ptr %7, align 8, !tbaa !29
  br label %49

44:                                               ; No predecessors!
  br label %45

45:                                               ; preds = %44
  br label %46

46:                                               ; preds = %45
  br label %47

47:                                               ; preds = %46
  br label %48

48:                                               ; preds = %47, %23
  br label %49

49:                                               ; preds = %48, %43
  br label %50

50:                                               ; preds = %49, %15
  %51 = load ptr, ptr %7, align 8, !tbaa !29
  call void @llvm.lifetime.end.p0(i64 1, ptr %8) #8
  call void @llvm.lifetime.end.p0(i64 8, ptr %7) #8
  ret ptr %51
}